target datalayout = "e-m:e-p270:32:32-p271:32:32-p272:64:64-i64:64-i128:128-f80:128-n8:16:32:64-S128"
target triple = "x86_64-pc-linux-gnu"

%struct._zend_compiler_globals = type { %struct._zend_stack, ptr, ptr, i32, ptr, ptr, ptr, ptr, i8, i8, i8, i8, i8, %struct._zend_llist, ptr, i8, i8, i8, i8, ptr, i32, i32, %struct._zend_oparray_context, %struct._zend_file_context, ptr, %struct._zend_array, ptr, i64, i8, i8, i8, ptr, ptr, %struct._zend_stack, ptr, i32, ptr, ptr, i64, i64, ptr, ptr, ptr, ptr, i32, %struct._zend_stack }
%struct._zend_llist = type { ptr, ptr, i64, i64, ptr, i8, ptr }
%struct._zend_oparray_context = type { i32, i32, i32, i32, i32, i32, i32, ptr, ptr, i8 }
%struct._zend_file_context = type { %struct._zend_declarables, ptr, i8, i8, ptr, ptr, ptr, %struct._zend_array }
%struct._zend_declarables = type { i64 }
%struct._zend_array = type { %struct._zend_refcounted_h, %union.anon.0, i32, %union.anon.1, i32, i32, i32, i32, i64, ptr }
%struct._zend_refcounted_h = type { i32, %union.anon }
%union.anon = type { i32 }
%union.anon.0 = type { i32 }
%union.anon.1 = type { ptr }
%struct._zend_stack = type { i32, i32, i32, ptr }
%struct._zval_struct = type { %union._zend_value, %union.anon.3, %union.anon.6 }
%union._zend_value = type { i64 }
%union.anon.3 = type { i32 }
%union.anon.6 = type { i32 }
%struct._zend_op_array = type { i8, [3 x i8], i32, ptr, ptr, ptr, i32, i32, ptr, ptr, ptr, ptr, i32, i32, i32, i32, ptr, ptr, ptr, ptr, ptr, i32, i32, ptr, ptr, ptr, i32, i32, i32, i32, ptr, ptr, [6 x ptr] }
%struct._zend_string = type { %struct._zend_refcounted_h, i64, i64, [1 x i8] }
%struct._zend_ast_list = type { i16, i16, i32, i32, [1 x ptr] }
%struct._zend_ast_zval = type { i16, i16, %struct._zval_struct }
%struct._zend_ast = type { i16, i16, i32, [1 x ptr] }
%struct._znode = type { i8, i8, %union.anon.14 }
%union.anon.14 = type { %struct._zval_struct }

@compiler_globals = global %struct._zend_compiler_globals zeroinitializer, align 8
@.str.205 = private unnamed_addr constant [14 x i8] c"func_get_args\00", align 1

; Function Attrs: nounwind uwtable
define internal ptr @zend_resolve_function_name(ptr noundef %0, i32 noundef %1, ptr noundef %2) #0 {
  %4 = alloca ptr, align 8
  %5 = alloca i32, align 4
  %6 = alloca ptr, align 8
  store ptr %0, ptr %4, align 8
  store i32 %1, ptr %5, align 4
  store ptr %2, ptr %6, align 8
  %7 = load ptr, ptr %4, align 8
  %8 = load i32, ptr %5, align 4
  %9 = load ptr, ptr %6, align 8
  %10 = load ptr, ptr getelementptr inbounds (%struct._zend_compiler_globals, ptr @compiler_globals, i32 0, i32 23, i32 5), align 8
  %11 = call ptr @zend_resolve_non_class_name(ptr noundef %7, i32 noundef %8, ptr noundef %9, i1 noundef zeroext false, ptr noundef %10)
  ret ptr %11
}

; Function Attrs: nounwind uwtable
define internal i32 @zend_compile_func_array_slice(ptr noundef %0, ptr noundef %1) #0 {
  %3 = alloca ptr, align 8
  %4 = alloca ptr, align 8
  %5 = alloca i32, align 4
  %6 = alloca ptr, align 8
  %7 = alloca i8, align 1
  %8 = alloca i32, align 4
  %9 = alloca ptr, align 8
  %10 = alloca i8, align 1
  %11 = alloca ptr, align 8
  %12 = alloca ptr, align 8
  %13 = alloca ptr, align 8
  %14 = alloca ptr, align 8
  %15 = alloca ptr, align 8
  %16 = alloca ptr, align 8
  %17 = alloca ptr, align 8
  %18 = alloca ptr, align 8
  %19 = alloca i32, align 4
  %20 = alloca ptr, align 8
  %21 = alloca ptr, align 8
  %22 = alloca ptr, align 8
  %23 = alloca i8, align 1
  %24 = alloca ptr, align 8
  %25 = alloca ptr, align 8
  %26 = alloca ptr, align 8
  %27 = alloca %struct._znode, align 8
  %28 = alloca ptr, align 8
  store ptr %0, ptr %20, align 8
  store ptr %1, ptr %21, align 8
  %29 = load ptr, ptr getelementptr inbounds (%struct._zend_compiler_globals, ptr @compiler_globals, i32 0, i32 4), align 8
  %30 = getelementptr inbounds %struct._zend_op_array, ptr %29, i32 0, i32 3
  %31 = load ptr, ptr %30, align 8
  %32 = icmp ne ptr %31, null
  br i1 %32, label %33, label %245

33:                                               ; preds = %2
  %34 = load ptr, ptr %21, align 8
  %35 = getelementptr inbounds %struct._zend_ast_list, ptr %34, i32 0, i32 3
  %36 = load i32, ptr %35, align 8
  %37 = icmp eq i32 %36, 2
  br i1 %37, label %38, label %245

38:                                               ; preds = %33
  %39 = load ptr, ptr %21, align 8
  %40 = getelementptr inbounds %struct._zend_ast_list, ptr %39, i32 0, i32 4
  %41 = getelementptr inbounds [1 x ptr], ptr %40, i64 0, i64 0
  %42 = load ptr, ptr %41, align 8
  %43 = getelementptr inbounds %struct._zend_ast, ptr %42, i32 0, i32 0
  %44 = load i16, ptr %43, align 8
  %45 = zext i16 %44 to i32
  %46 = icmp eq i32 %45, 516
  br i1 %46, label %47, label %245

47:                                               ; preds = %38
  %48 = load ptr, ptr %21, align 8
  %49 = getelementptr inbounds %struct._zend_ast_list, ptr %48, i32 0, i32 4
  %50 = getelementptr inbounds [1 x ptr], ptr %49, i64 0, i64 0
  %51 = load ptr, ptr %50, align 8
  %52 = getelementptr inbounds %struct._zend_ast, ptr %51, i32 0, i32 3
  %53 = getelementptr inbounds [1 x ptr], ptr %52, i64 0, i64 0
  %54 = load ptr, ptr %53, align 8
  %55 = getelementptr inbounds %struct._zend_ast, ptr %54, i32 0, i32 0
  %56 = load i16, ptr %55, align 8
  %57 = zext i16 %56 to i32
  %58 = icmp eq i32 %57, 64
  br i1 %58, label %59, label %245

59:                                               ; preds = %47
  %60 = load ptr, ptr %21, align 8
  %61 = getelementptr inbounds %struct._zend_ast_list, ptr %60, i32 0, i32 4
  %62 = getelementptr inbounds [1 x ptr], ptr %61, i64 0, i64 0
  %63 = load ptr, ptr %62, align 8
  %64 = getelementptr inbounds %struct._zend_ast, ptr %63, i32 0, i32 3
  %65 = getelementptr inbounds [1 x ptr], ptr %64, i64 0, i64 0
  %66 = load ptr, ptr %65, align 8
  store ptr %66, ptr %16, align 8
  %67 = load ptr, ptr %16, align 8
  %68 = load i16, ptr %67, align 8
  %69 = zext i16 %68 to i32
  %70 = icmp eq i32 %69, 64
  call void @llvm.assume(i1 %70)
  %71 = load ptr, ptr %16, align 8
  %72 = getelementptr inbounds %struct._zend_ast_zval, ptr %71, i32 0, i32 2
  store ptr %72, ptr %14, align 8
  %73 = load ptr, ptr %14, align 8
  %74 = getelementptr inbounds %struct._zval_struct, ptr %73, i32 0, i32 1
  %75 = load i8, ptr %74, align 8
  %76 = zext i8 %75 to i32
  %77 = icmp eq i32 %76, 6
  br i1 %77, label %78, label %245

78:                                               ; preds = %59
  %79 = load ptr, ptr %21, align 8
  %80 = getelementptr inbounds %struct._zend_ast_list, ptr %79, i32 0, i32 4
  %81 = getelementptr inbounds [1 x ptr], ptr %80, i64 0, i64 0
  %82 = load ptr, ptr %81, align 8
  %83 = getelementptr inbounds %struct._zend_ast, ptr %82, i32 0, i32 3
  %84 = getelementptr inbounds [1 x ptr], ptr %83, i64 0, i64 1
  %85 = load ptr, ptr %84, align 8
  %86 = getelementptr inbounds %struct._zend_ast, ptr %85, i32 0, i32 0
  %87 = load i16, ptr %86, align 8
  %88 = zext i16 %87 to i32
  %89 = icmp eq i32 %88, 128
  br i1 %89, label %90, label %245

90:                                               ; preds = %78
  %91 = load ptr, ptr %21, align 8
  %92 = getelementptr inbounds %struct._zend_ast_list, ptr %91, i32 0, i32 4
  %93 = getelementptr inbounds [1 x ptr], ptr %92, i64 0, i64 1
  %94 = load ptr, ptr %93, align 8
  %95 = getelementptr inbounds %struct._zend_ast, ptr %94, i32 0, i32 0
  %96 = load i16, ptr %95, align 8
  %97 = zext i16 %96 to i32
  %98 = icmp eq i32 %97, 64
  br i1 %98, label %99, label %245

99:                                               ; preds = %90
  %100 = load ptr, ptr %21, align 8
  %101 = getelementptr inbounds %struct._zend_ast_list, ptr %100, i32 0, i32 4
  %102 = getelementptr inbounds [1 x ptr], ptr %101, i64 0, i64 0
  %103 = load ptr, ptr %102, align 8
  %104 = getelementptr inbounds %struct._zend_ast, ptr %103, i32 0, i32 3
  %105 = getelementptr inbounds [1 x ptr], ptr %104, i64 0, i64 0
  %106 = load ptr, ptr %105, align 8
  store ptr %106, ptr %12, align 8
  %107 = load ptr, ptr %12, align 8
  store ptr %107, ptr %11, align 8
  %108 = load ptr, ptr %11, align 8
  %109 = load i16, ptr %108, align 8
  %110 = zext i16 %109 to i32
  %111 = icmp eq i32 %110, 64
  call void @llvm.assume(i1 %111)
  %112 = load ptr, ptr %11, align 8
  %113 = getelementptr inbounds %struct._zend_ast_zval, ptr %112, i32 0, i32 2
  store ptr %113, ptr %13, align 8
  %114 = load ptr, ptr %13, align 8
  %115 = load ptr, ptr %114, align 8
  store ptr %115, ptr %22, align 8
  %116 = load ptr, ptr %22, align 8
  %117 = load ptr, ptr %21, align 8
  %118 = getelementptr inbounds %struct._zend_ast_list, ptr %117, i32 0, i32 4
  %119 = getelementptr inbounds [1 x ptr], ptr %118, i64 0, i64 0
  %120 = load ptr, ptr %119, align 8
  %121 = getelementptr inbounds %struct._zend_ast, ptr %120, i32 0, i32 3
  %122 = getelementptr inbounds [1 x ptr], ptr %121, i64 0, i64 0
  %123 = load ptr, ptr %122, align 8
  %124 = getelementptr inbounds %struct._zend_ast, ptr %123, i32 0, i32 1
  %125 = load i16, ptr %124, align 2
  %126 = zext i16 %125 to i32
  %127 = call ptr @zend_resolve_function_name(ptr noundef %116, i32 noundef %126, ptr noundef %23)
  store ptr %127, ptr %24, align 8
  %128 = load ptr, ptr %21, align 8
  %129 = getelementptr inbounds %struct._zend_ast_list, ptr %128, i32 0, i32 4
  %130 = getelementptr inbounds [1 x ptr], ptr %129, i64 0, i64 0
  %131 = load ptr, ptr %130, align 8
  %132 = getelementptr inbounds %struct._zend_ast, ptr %131, i32 0, i32 3
  %133 = getelementptr inbounds [1 x ptr], ptr %132, i64 0, i64 1
  %134 = load ptr, ptr %133, align 8
  store ptr %134, ptr %18, align 8
  %135 = load ptr, ptr %18, align 8
  store ptr %135, ptr %25, align 8
  %136 = load ptr, ptr %21, align 8
  %137 = getelementptr inbounds %struct._zend_ast_list, ptr %136, i32 0, i32 4
  %138 = getelementptr inbounds [1 x ptr], ptr %137, i64 0, i64 1
  %139 = load ptr, ptr %138, align 8
  store ptr %139, ptr %17, align 8
  %140 = load ptr, ptr %17, align 8
  %141 = load i16, ptr %140, align 8
  %142 = zext i16 %141 to i32
  %143 = icmp eq i32 %142, 64
  call void @llvm.assume(i1 %143)
  %144 = load ptr, ptr %17, align 8
  %145 = getelementptr inbounds %struct._zend_ast_zval, ptr %144, i32 0, i32 2
  store ptr %145, ptr %26, align 8
  %146 = load ptr, ptr %24, align 8
  %147 = getelementptr inbounds %struct._zend_string, ptr %146, i32 0, i32 2
  %148 = load i64, ptr %147, align 8
  %149 = icmp eq i64 %148, 13
  br i1 %149, label %150, label %217

150:                                              ; preds = %99
  %151 = load ptr, ptr %24, align 8
  %152 = getelementptr inbounds %struct._zend_string, ptr %151, i32 0, i32 3
  %153 = getelementptr inbounds [1 x i8], ptr %152, i64 0, i64 0
  %154 = load ptr, ptr %24, align 8
  %155 = getelementptr inbounds %struct._zend_string, ptr %154, i32 0, i32 2
  %156 = load i64, ptr %155, align 8
  %157 = call i32 @zend_binary_strcasecmp(ptr noundef %153, i64 noundef %156, ptr noundef @.str.205, i64 noundef 13)
  %158 = icmp ne i32 %157, 0
  br i1 %158, label %217, label %159

159:                                              ; preds = %150
  %160 = load ptr, ptr %25, align 8
  %161 = getelementptr inbounds %struct._zend_ast_list, ptr %160, i32 0, i32 3
  %162 = load i32, ptr %161, align 8
  %163 = icmp eq i32 %162, 0
  br i1 %163, label %164, label %217

164:                                              ; preds = %159
  %165 = load ptr, ptr %26, align 8
  store ptr %165, ptr %15, align 8
  %166 = load ptr, ptr %15, align 8
  %167 = getelementptr inbounds %struct._zval_struct, ptr %166, i32 0, i32 1
  %168 = load i8, ptr %167, align 8
  %169 = zext i8 %168 to i32
  %170 = icmp eq i32 %169, 4
  br i1 %170, label %171, label %217

171:                                              ; preds = %164
  %172 = load ptr, ptr %26, align 8
  %173 = getelementptr inbounds %struct._zval_struct, ptr %172, i32 0, i32 0
  %174 = load i64, ptr %173, align 8
  %175 = icmp sge i64 %174, 0
  br i1 %175, label %176, label %217

176:                                              ; preds = %171
  %177 = getelementptr inbounds %struct._znode, ptr %27, i32 0, i32 0
  store i8 1, ptr %177, align 8
  br label %178

178:                                              ; preds = %176
  %179 = getelementptr inbounds %struct._znode, ptr %27, i32 0, i32 2
  store ptr %179, ptr %28, align 8
  %180 = load ptr, ptr %26, align 8
  %181 = getelementptr inbounds %struct._zval_struct, ptr %180, i32 0, i32 0
  %182 = load i64, ptr %181, align 8
  %183 = load ptr, ptr %28, align 8
  %184 = getelementptr inbounds %struct._zval_struct, ptr %183, i32 0, i32 0
  store i64 %182, ptr %184, align 8
  %185 = load ptr, ptr %28, align 8
  %186 = getelementptr inbounds %struct._zval_struct, ptr %185, i32 0, i32 1
  store i32 4, ptr %186, align 8
  br label %187

187:                                              ; preds = %178
  %188 = load ptr, ptr %20, align 8
  %189 = call ptr @zend_emit_op_tmp(ptr noundef %188, i8 noundef zeroext -84, ptr noundef %27, ptr noundef null)
  %190 = load ptr, ptr %24, align 8
  store ptr %190, ptr %6, align 8
  store i8 0, ptr %7, align 1
  %191 = load ptr, ptr %6, align 8
  %192 = getelementptr inbounds %struct._zend_refcounted_h, ptr %191, i32 0, i32 1
  %193 = load i32, ptr %192, align 4
  store i32 %193, ptr %5, align 4
  %194 = load i32, ptr %5, align 4
  %195 = and i32 %194, 1008
  %196 = and i32 %195, 64
  %197 = icmp ne i32 %196, 0
  br i1 %197, label %216, label %198

198:                                              ; preds = %187
  %199 = load ptr, ptr %6, align 8
  store ptr %199, ptr %4, align 8
  %200 = load ptr, ptr %4, align 8
  %201 = load i32, ptr %200, align 4
  %202 = icmp ugt i32 %201, 0
  call void @llvm.assume(i1 %202)
  %203 = load ptr, ptr %4, align 8
  %204 = load i32, ptr %203, align 4
  %205 = add i32 %204, -1
  store i32 %205, ptr %203, align 4
  %206 = icmp eq i32 %205, 0
  br i1 %206, label %207, label %215

207:                                              ; preds = %198
  %208 = load i8, ptr %7, align 1
  %209 = trunc i8 %208 to i1
  br i1 %209, label %210, label %212

210:                                              ; preds = %207
  %211 = load ptr, ptr %6, align 8
  call void @free(ptr noundef %211) #15
  br label %214

212:                                              ; preds = %207
  %213 = load ptr, ptr %6, align 8
  call void @_efree(ptr noundef %213) #15
  br label %214

214:                                              ; preds = %212, %210
  br label %215

215:                                              ; preds = %214, %198
  br label %216

216:                                              ; preds = %215, %187
  store i32 0, ptr %19, align 4
  br label %246

217:                                              ; preds = %171, %164, %159, %150, %99
  %218 = load ptr, ptr %24, align 8
  store ptr %218, ptr %9, align 8
  store i8 0, ptr %10, align 1
  %219 = load ptr, ptr %9, align 8
  %220 = getelementptr inbounds %struct._zend_refcounted_h, ptr %219, i32 0, i32 1
  %221 = load i32, ptr %220, align 4
  store i32 %221, ptr %8, align 4
  %222 = load i32, ptr %8, align 4
  %223 = and i32 %222, 1008
  %224 = and i32 %223, 64
  %225 = icmp ne i32 %224, 0
  br i1 %225, label %244, label %226

226:                                              ; preds = %217
  %227 = load ptr, ptr %9, align 8
  store ptr %227, ptr %3, align 8
  %228 = load ptr, ptr %3, align 8
  %229 = load i32, ptr %228, align 4
  %230 = icmp ugt i32 %229, 0
  call void @llvm.assume(i1 %230)
  %231 = load ptr, ptr %3, align 8
  %232 = load i32, ptr %231, align 4
  %233 = add i32 %232, -1
  store i32 %233, ptr %231, align 4
  %234 = icmp eq i32 %233, 0
  br i1 %234, label %235, label %243

235:                                              ; preds = %226
  %236 = load i8, ptr %10, align 1
  %237 = trunc i8 %236 to i1
  br i1 %237, label %238, label %240

238:                                              ; preds = %235
  %239 = load ptr, ptr %9, align 8
  call void @free(ptr noundef %239) #15
  br label %242

240:                                              ; preds = %235
  %241 = load ptr, ptr %9, align 8
  call void @_efree(ptr noundef %241) #15
  br label %242

242:                                              ; preds = %240, %238
  br label %243

243:                                              ; preds = %242, %226
  br label %244

244:                                              ; preds = %243, %217
  br label %245

245:                                              ; preds = %244, %90, %78, %59, %47, %38, %33, %2
  store i32 -1, ptr %19, align 4
  br label %246

246:                                              ; preds = %245, %216
  %247 = load i32, ptr %19, align 4
  ret i32 %247
}