; Function Attrs: nounwind uwtable
define internal fastcc noundef i32 @zend_compile_func_array_slice(ptr noundef %0, ptr nocapture noundef readonly %1) unnamed_addr #0 {
  %3 = alloca i8, align 1
  %4 = alloca %struct._znode, align 8
  %5 = load ptr, ptr getelementptr inbounds (%struct._zend_compiler_globals, ptr @compiler_globals, i64 0, i32 4), align 8
  %6 = getelementptr inbounds i8, ptr %5, i64 8
  %7 = load ptr, ptr %6, align 8
  %.not = icmp eq ptr %7, null
  br i1 %.not, label %91, label %8

8:                                                ; preds = %2
  %9 = getelementptr inbounds i8, ptr %1, i64 8
  %10 = load i32, ptr %9, align 8
  %11 = icmp eq i32 %10, 2
  br i1 %11, label %12, label %91

12:                                               ; preds = %8
  %13 = getelementptr inbounds i8, ptr %1, i64 16
  %14 = load ptr, ptr %13, align 8
  %15 = load i16, ptr %14, align 8
  %16 = icmp eq i16 %15, 516
  br i1 %16, label %17, label %91

17:                                               ; preds = %12
  %18 = getelementptr inbounds i8, ptr %14, i64 8
  %19 = load ptr, ptr %18, align 8
  %20 = load i16, ptr %19, align 8
  %21 = icmp eq i16 %20, 64
  br i1 %21, label %22, label %91

22:                                               ; preds = %17
  %23 = getelementptr inbounds i8, ptr %19, i64 8
  %24 = getelementptr inbounds i8, ptr %19, i64 16
  %25 = load i8, ptr %24, align 8
  %26 = icmp eq i8 %25, 6
  br i1 %26, label %27, label %91

27:                                               ; preds = %22
  %28 = getelementptr inbounds i8, ptr %14, i64 16
  %29 = load ptr, ptr %28, align 8
  %30 = load i16, ptr %29, align 8
  %31 = icmp eq i16 %30, 128
  br i1 %31, label %32, label %91

32:                                               ; preds = %27
  %33 = getelementptr inbounds i8, ptr %1, i64 24
  %34 = load ptr, ptr %33, align 8
  %35 = load i16, ptr %34, align 8
  %36 = icmp eq i16 %35, 64
  br i1 %36, label %37, label %91

37:                                               ; preds = %32
  %38 = load ptr, ptr %23, align 8
  %39 = getelementptr inbounds i8, ptr %19, i64 2
  %40 = load i16, ptr %39, align 2
  %41 = zext i16 %40 to i32
  %42 = load ptr, ptr getelementptr inbounds (%struct._zend_compiler_globals, ptr @compiler_globals, i64 0, i32 23, i32 5), align 8
  %43 = call fastcc ptr @zend_resolve_non_class_name(ptr noundef %38, i32 noundef %41, ptr noundef nonnull %3, i1 noundef zeroext false, ptr noundef %42)
  %44 = load ptr, ptr %13, align 8
  %45 = getelementptr inbounds i8, ptr %44, i64 16
  %46 = load ptr, ptr %45, align 8
  %47 = load ptr, ptr %33, align 8
  %48 = load i16, ptr %47, align 8
  %49 = icmp eq i16 %48, 64
  tail call void @llvm.assume(i1 %49)
  %50 = getelementptr inbounds i8, ptr %47, i64 8
  %51 = getelementptr inbounds i8, ptr %43, i64 16
  %52 = load i64, ptr %51, align 8
  %53 = icmp eq i64 %52, 13
  br i1 %53, label %54, label %81

54:                                               ; preds = %37
  %55 = getelementptr inbounds i8, ptr %43, i64 24
  %56 = tail call i32 @zend_binary_strcasecmp(ptr noundef nonnull %55, i64 noundef 13, ptr noundef nonnull @.str.205, i64 noundef 13) #30
  %.not51 = icmp eq i32 %56, 0
  br i1 %.not51, label %57, label %81

57:                                               ; preds = %54
  %58 = getelementptr inbounds i8, ptr %46, i64 8
  %59 = load i32, ptr %58, align 8
  %60 = icmp eq i32 %59, 0
  br i1 %60, label %61, label %81

61:                                               ; preds = %57
  %62 = getelementptr inbounds i8, ptr %47, i64 16
  %63 = load i8, ptr %62, align 8
  %64 = icmp eq i8 %63, 4
  br i1 %64, label %65, label %81

65:                                               ; preds = %61
  %66 = load i64, ptr %50, align 8
  %67 = icmp sgt i64 %66, -1
  br i1 %67, label %68, label %81

68:                                               ; preds = %65
  store i8 1, ptr %4, align 8
  %69 = getelementptr inbounds i8, ptr %4, i64 8
  store i64 %66, ptr %69, align 8
  %70 = getelementptr inbounds i8, ptr %4, i64 16
  store i32 4, ptr %70, align 8
  %71 = call fastcc ptr @zend_emit_op_tmp(ptr noundef %0, i8 noundef zeroext -84, ptr noundef nonnull %4, ptr noundef null)
  %72 = getelementptr inbounds i8, ptr %43, i64 4
  %73 = load i32, ptr %72, align 4
  %74 = and i32 %73, 64
  %.not52 = icmp eq i32 %74, 0
  br i1 %.not52, label %75, label %91

75:                                               ; preds = %68
  %76 = load i32, ptr %43, align 4
  %77 = icmp ne i32 %76, 0
  call void @llvm.assume(i1 %77)
  %78 = add i32 %76, -1
  store i32 %78, ptr %43, align 4
  %79 = icmp eq i32 %78, 0
  br i1 %79, label %80, label %91

80:                                               ; preds = %75
  call void @_efree(ptr noundef nonnull %43) #30
  br label %91

81:                                               ; preds = %65, %61, %57, %54, %37
  %82 = getelementptr inbounds i8, ptr %43, i64 4
  %83 = load i32, ptr %82, align 4
  %84 = and i32 %83, 64
  %.not53 = icmp eq i32 %84, 0
  br i1 %.not53, label %85, label %91

85:                                               ; preds = %81
  %86 = load i32, ptr %43, align 4
  %87 = icmp ne i32 %86, 0
  tail call void @llvm.assume(i1 %87)
  %88 = add i32 %86, -1
  store i32 %88, ptr %43, align 4
  %89 = icmp eq i32 %88, 0
  br i1 %89, label %90, label %91

90:                                               ; preds = %85
  tail call void @_efree(ptr noundef nonnull %43) #30
  br label %91

91:                                               ; preds = %2, %8, %12, %17, %22, %27, %32, %85, %90, %81, %68, %80, %75
  %.0 = phi i32 [ 0, %75 ], [ 0, %80 ], [ 0, %68 ], [ -1, %81 ], [ -1, %90 ], [ -1, %85 ], [ -1, %32 ], [ -1, %27 ], [ -1, %22 ], [ -1, %17 ], [ -1, %12 ], [ -1, %8 ], [ -1, %2 ]
  ret i32 %.0
}